(lp0
Vmissing emojis?
p1
aVyet another: title, formatting, points
p2
aVupgrade slots granted by other upgrades
p3
aVsupport other builders?
p4
aVcard lookup
p5
aVhost you somewhere that isn\u2019t my work laptop
p6
aVlist tracking
p7
aVpush the bot code to git
p8
aVteam avatar
p9
aVdice roller
p10
aV(specifically the rpg dice for those chaps)
p11
aVadd name to top of lists
p12
a.