(lp0
Vupdate topic with current kill count
p1
aV get a trendy avatar
p2
aVPrint daily kill count (assuming kills today &gt; 0)
p3
aVmissing emojis?
p4
aVyet another: title, formatting, points
p5
aVupgrade slots granted by other upgrades
p6
a.